	.file	"tmp.c"
	.text
.Ltext0:
	.p2align 4,,15
	.globl	__BSD_assert
	.type	__BSD_assert, @function
__BSD_assert:
.LFB68:
	.file 1 "tmp.c"
	.loc 1 78 0
	.cfi_startproc
.LVL0:
	rep ret
	.cfi_endproc
.LFE68:
	.size	__BSD_assert, .-__BSD_assert
	.section	.rodata.str1.1,"aMS",@progbits,1
.LC1:
	.string	"w"
.LC2:
	.string	"log.dat"
	.section	.rodata.str1.8,"aMS",@progbits,1
	.align 8
.LC3:
	.string	"LHP(syslog,LOG_USER,\"helloworld\\n\");"
	.section	.rodata.str1.1
.LC4:
	.string	"helloworld\n"
.LC5:
	.string	"%ld\n"
.LC9:
	.string	"%.0lfns\n"
.LC10:
	.string	"%.1lfus\n"
	.section	.text.startup,"ax",@progbits
	.p2align 4,,15
	.globl	main
	.type	main, @function
main:
.LFB69:
	.loc 1 98 0
	.cfi_startproc
	.loc 1 98 0
	pushq	%rbp
	.cfi_def_cfa_offset 16
	.cfi_offset 6, -16
	.loc 1 107 0
	movl	$16384, %edi
	.loc 1 98 0
	pushq	%rbx
	.cfi_def_cfa_offset 24
	.cfi_offset 3, -24
	subq	$40, %rsp
	.cfi_def_cfa_offset 64
	.loc 1 99 0
	movl	$10, 24(%rsp)
	.loc 1 101 0
	movl	$0x4048f5c3, 28(%rsp)
	.loc 1 107 0
	call	L_buffer_create
.LVL1:
	.loc 1 109 0
	movl	$.LC1, %esi
	movl	$.LC2, %edi
	call	fopen
.LVL2:
.LBB524:
.LBB525:
	.file 2 "/usr/include/x86_64-linux-gnu/bits/stdio2.h"
	.loc 2 104 0
	movl	$.LC3, %edi
.LBE525:
.LBE524:
	.loc 1 109 0
	movq	%rax, %rbp
.LVL3:
.LBB527:
.LBB526:
	.loc 2 104 0
	call	puts
.LVL4:
.LBE526:
.LBE527:
	.loc 1 117 0
	movl	false(%rip), %eax
	testl	%eax, %eax
	jne	.L17
.L3:
.LVL5:
	.loc 1 124 0
	movl	$.L3, %edx
.LBB528:
.LBB529:
	.loc 2 104 0
	movl	$.LC5, %esi
	movl	$1, %edi
.LBE529:
.LBE528:
	.loc 1 124 0
	subq	$.L4, %rdx
.LBB532:
.LBB530:
	.loc 2 104 0
	xorl	%eax, %eax
.LBE530:
.LBE532:
	.loc 1 125 0
	movl	$1024, %ebx
.LBB533:
.LBB531:
	.loc 2 104 0
	call	__printf_chk
.LVL6:
.LBE531:
.LBE533:
	.loc 1 125 0
	call	now
.LVL7:
	movsd	%xmm0, 8(%rsp)
.LVL8:
	.p2align 4,,10
	.p2align 3
.L6:
.LBB534:
.LBB535:
	.file 3 "/usr/include/x86_64-linux-gnu/bits/syslog.h"
	.loc 3 31 0
	xorl	%eax, %eax
	movl	$.LC4, %edx
	movl	$1, %esi
	movl	$8, %edi
	call	__syslog_chk
.LVL9:
.LBE535:
.LBE534:
.LBB536:
.LBB537:
	xorl	%eax, %eax
	movl	$.LC4, %edx
	movl	$1, %esi
	movl	$8, %edi
	call	__syslog_chk
.LVL10:
.LBE537:
.LBE536:
.LBB538:
.LBB539:
	xorl	%eax, %eax
	movl	$.LC4, %edx
	movl	$1, %esi
	movl	$8, %edi
	call	__syslog_chk
.LVL11:
.LBE539:
.LBE538:
.LBB540:
.LBB541:
	xorl	%eax, %eax
	movl	$.LC4, %edx
	movl	$1, %esi
	movl	$8, %edi
	call	__syslog_chk
.LVL12:
.LBE541:
.LBE540:
.LBB542:
.LBB543:
	xorl	%eax, %eax
	movl	$.LC4, %edx
	movl	$1, %esi
	movl	$8, %edi
	call	__syslog_chk
.LVL13:
.LBE543:
.LBE542:
.LBB544:
.LBB545:
	xorl	%eax, %eax
	movl	$.LC4, %edx
	movl	$1, %esi
	movl	$8, %edi
	call	__syslog_chk
.LVL14:
.LBE545:
.LBE544:
.LBB546:
.LBB547:
	xorl	%eax, %eax
	movl	$.LC4, %edx
	movl	$1, %esi
	movl	$8, %edi
	call	__syslog_chk
.LVL15:
.LBE547:
.LBE546:
.LBB548:
.LBB549:
	xorl	%eax, %eax
	movl	$.LC4, %edx
	movl	$1, %esi
	movl	$8, %edi
	call	__syslog_chk
.LVL16:
.LBE549:
.LBE548:
.LBB550:
.LBB551:
	xorl	%eax, %eax
	movl	$.LC4, %edx
	movl	$1, %esi
	movl	$8, %edi
	call	__syslog_chk
.LVL17:
.LBE551:
.LBE550:
.LBB552:
.LBB553:
	xorl	%eax, %eax
	movl	$.LC4, %edx
	movl	$1, %esi
	movl	$8, %edi
	call	__syslog_chk
.LVL18:
.LBE553:
.LBE552:
.LBB554:
.LBB555:
	xorl	%eax, %eax
	movl	$.LC4, %edx
	movl	$1, %esi
	movl	$8, %edi
	call	__syslog_chk
.LVL19:
.LBE555:
.LBE554:
.LBB556:
.LBB557:
	xorl	%eax, %eax
	movl	$.LC4, %edx
	movl	$1, %esi
	movl	$8, %edi
	call	__syslog_chk
.LVL20:
.LBE557:
.LBE556:
.LBB558:
.LBB559:
	xorl	%eax, %eax
	movl	$.LC4, %edx
	movl	$1, %esi
	movl	$8, %edi
	call	__syslog_chk
.LVL21:
.LBE559:
.LBE558:
.LBB560:
.LBB561:
	xorl	%eax, %eax
	movl	$.LC4, %edx
	movl	$1, %esi
	movl	$8, %edi
	call	__syslog_chk
.LVL22:
.LBE561:
.LBE560:
.LBB562:
.LBB563:
	xorl	%eax, %eax
	movl	$.LC4, %edx
	movl	$1, %esi
	movl	$8, %edi
	call	__syslog_chk
.LVL23:
.LBE563:
.LBE562:
.LBB564:
.LBB565:
	xorl	%eax, %eax
	movl	$.LC4, %edx
	movl	$1, %esi
	movl	$8, %edi
	call	__syslog_chk
.LVL24:
.LBE565:
.LBE564:
.LBB566:
.LBB567:
	movl	$.LC4, %edx
	movl	$1, %esi
	movl	$8, %edi
	xorl	%eax, %eax
	call	__syslog_chk
.LVL25:
.LBE567:
.LBE566:
.LBB568:
.LBB569:
	xorl	%eax, %eax
	movl	$.LC4, %edx
	movl	$1, %esi
	movl	$8, %edi
	call	__syslog_chk
.LVL26:
.LBE569:
.LBE568:
.LBB570:
.LBB571:
	xorl	%eax, %eax
	movl	$.LC4, %edx
	movl	$1, %esi
	movl	$8, %edi
	call	__syslog_chk
.LVL27:
.LBE571:
.LBE570:
.LBB572:
.LBB573:
	xorl	%eax, %eax
	movl	$.LC4, %edx
	movl	$1, %esi
	movl	$8, %edi
	call	__syslog_chk
.LVL28:
.LBE573:
.LBE572:
.LBB574:
.LBB575:
	xorl	%eax, %eax
	movl	$.LC4, %edx
	movl	$1, %esi
	movl	$8, %edi
	call	__syslog_chk
.LVL29:
.LBE575:
.LBE574:
.LBB576:
.LBB577:
	xorl	%eax, %eax
	movl	$.LC4, %edx
	movl	$1, %esi
	movl	$8, %edi
	call	__syslog_chk
.LVL30:
.LBE577:
.LBE576:
.LBB578:
.LBB579:
	xorl	%eax, %eax
	movl	$.LC4, %edx
	movl	$1, %esi
	movl	$8, %edi
	call	__syslog_chk
.LVL31:
.LBE579:
.LBE578:
.LBB580:
.LBB581:
	xorl	%eax, %eax
	movl	$.LC4, %edx
	movl	$1, %esi
	movl	$8, %edi
	call	__syslog_chk
.LVL32:
.LBE581:
.LBE580:
.LBB582:
.LBB583:
	xorl	%eax, %eax
	movl	$.LC4, %edx
	movl	$1, %esi
	movl	$8, %edi
	call	__syslog_chk
.LVL33:
.LBE583:
.LBE582:
.LBB584:
.LBB585:
	xorl	%eax, %eax
	movl	$.LC4, %edx
	movl	$1, %esi
	movl	$8, %edi
	call	__syslog_chk
.LVL34:
.LBE585:
.LBE584:
.LBB586:
.LBB587:
	xorl	%eax, %eax
	movl	$.LC4, %edx
	movl	$1, %esi
	movl	$8, %edi
	call	__syslog_chk
.LVL35:
.LBE587:
.LBE586:
.LBB588:
.LBB589:
	xorl	%eax, %eax
	movl	$.LC4, %edx
	movl	$1, %esi
	movl	$8, %edi
	call	__syslog_chk
.LVL36:
.LBE589:
.LBE588:
.LBB590:
.LBB591:
	xorl	%eax, %eax
	movl	$.LC4, %edx
	movl	$1, %esi
	movl	$8, %edi
	call	__syslog_chk
.LVL37:
.LBE591:
.LBE590:
.LBB592:
.LBB593:
	xorl	%eax, %eax
	movl	$.LC4, %edx
	movl	$1, %esi
	movl	$8, %edi
	call	__syslog_chk
.LVL38:
.LBE593:
.LBE592:
.LBB594:
.LBB595:
	xorl	%eax, %eax
	movl	$.LC4, %edx
	movl	$1, %esi
	movl	$8, %edi
	call	__syslog_chk
.LVL39:
.LBE595:
.LBE594:
.LBB596:
.LBB597:
	xorl	%eax, %eax
	movl	$.LC4, %edx
	movl	$1, %esi
	movl	$8, %edi
	call	__syslog_chk
.LVL40:
.LBE597:
.LBE596:
.LBB598:
.LBB599:
	movl	$.LC4, %edx
	movl	$1, %esi
	movl	$8, %edi
	xorl	%eax, %eax
	call	__syslog_chk
.LVL41:
.LBE599:
.LBE598:
.LBB600:
.LBB601:
	xorl	%eax, %eax
	movl	$.LC4, %edx
	movl	$1, %esi
	movl	$8, %edi
	call	__syslog_chk
.LVL42:
.LBE601:
.LBE600:
.LBB602:
.LBB603:
	xorl	%eax, %eax
	movl	$.LC4, %edx
	movl	$1, %esi
	movl	$8, %edi
	call	__syslog_chk
.LVL43:
.LBE603:
.LBE602:
.LBB604:
.LBB605:
	xorl	%eax, %eax
	movl	$.LC4, %edx
	movl	$1, %esi
	movl	$8, %edi
	call	__syslog_chk
.LVL44:
.LBE605:
.LBE604:
.LBB606:
.LBB607:
	xorl	%eax, %eax
	movl	$.LC4, %edx
	movl	$1, %esi
	movl	$8, %edi
	call	__syslog_chk
.LVL45:
.LBE607:
.LBE606:
.LBB608:
.LBB609:
	xorl	%eax, %eax
	movl	$.LC4, %edx
	movl	$1, %esi
	movl	$8, %edi
	call	__syslog_chk
.LVL46:
.LBE609:
.LBE608:
.LBB610:
.LBB611:
	xorl	%eax, %eax
	movl	$.LC4, %edx
	movl	$1, %esi
	movl	$8, %edi
	call	__syslog_chk
.LVL47:
.LBE611:
.LBE610:
.LBB612:
.LBB613:
	xorl	%eax, %eax
	movl	$.LC4, %edx
	movl	$1, %esi
	movl	$8, %edi
	call	__syslog_chk
.LVL48:
.LBE613:
.LBE612:
.LBB614:
.LBB615:
	xorl	%eax, %eax
	movl	$.LC4, %edx
	movl	$1, %esi
	movl	$8, %edi
	call	__syslog_chk
.LVL49:
.LBE615:
.LBE614:
.LBB616:
.LBB617:
	xorl	%eax, %eax
	movl	$.LC4, %edx
	movl	$1, %esi
	movl	$8, %edi
	call	__syslog_chk
.LVL50:
.LBE617:
.LBE616:
.LBB618:
.LBB619:
	xorl	%eax, %eax
	movl	$.LC4, %edx
	movl	$1, %esi
	movl	$8, %edi
	call	__syslog_chk
.LVL51:
.LBE619:
.LBE618:
.LBB620:
.LBB621:
	xorl	%eax, %eax
	movl	$.LC4, %edx
	movl	$1, %esi
	movl	$8, %edi
	call	__syslog_chk
.LVL52:
.LBE621:
.LBE620:
.LBB622:
.LBB623:
	xorl	%eax, %eax
	movl	$.LC4, %edx
	movl	$1, %esi
	movl	$8, %edi
	call	__syslog_chk
.LVL53:
.LBE623:
.LBE622:
.LBB624:
.LBB625:
	xorl	%eax, %eax
	movl	$.LC4, %edx
	movl	$1, %esi
	movl	$8, %edi
	call	__syslog_chk
.LVL54:
.LBE625:
.LBE624:
.LBB626:
.LBB627:
	xorl	%eax, %eax
	movl	$.LC4, %edx
	movl	$1, %esi
	movl	$8, %edi
	call	__syslog_chk
.LVL55:
.LBE627:
.LBE626:
.LBB628:
.LBB629:
	xorl	%eax, %eax
	movl	$.LC4, %edx
	movl	$1, %esi
	movl	$8, %edi
	call	__syslog_chk
.LVL56:
.LBE629:
.LBE628:
.LBB630:
.LBB631:
	xorl	%eax, %eax
	movl	$.LC4, %edx
	movl	$1, %esi
	movl	$8, %edi
	call	__syslog_chk
.LVL57:
.LBE631:
.LBE630:
.LBB632:
.LBB633:
	movl	$.LC4, %edx
	movl	$1, %esi
	movl	$8, %edi
	xorl	%eax, %eax
	call	__syslog_chk
.LVL58:
.LBE633:
.LBE632:
.LBB634:
.LBB635:
	xorl	%eax, %eax
	movl	$.LC4, %edx
	movl	$1, %esi
	movl	$8, %edi
	call	__syslog_chk
.LVL59:
.LBE635:
.LBE634:
.LBB636:
.LBB637:
	xorl	%eax, %eax
	movl	$.LC4, %edx
	movl	$1, %esi
	movl	$8, %edi
	call	__syslog_chk
.LVL60:
.LBE637:
.LBE636:
.LBB638:
.LBB639:
	xorl	%eax, %eax
	movl	$.LC4, %edx
	movl	$1, %esi
	movl	$8, %edi
	call	__syslog_chk
.LVL61:
.LBE639:
.LBE638:
.LBB640:
.LBB641:
	xorl	%eax, %eax
	movl	$.LC4, %edx
	movl	$1, %esi
	movl	$8, %edi
	call	__syslog_chk
.LVL62:
.LBE641:
.LBE640:
.LBB642:
.LBB643:
	xorl	%eax, %eax
	movl	$.LC4, %edx
	movl	$1, %esi
	movl	$8, %edi
	call	__syslog_chk
.LVL63:
.LBE643:
.LBE642:
.LBB644:
.LBB645:
	xorl	%eax, %eax
	movl	$.LC4, %edx
	movl	$1, %esi
	movl	$8, %edi
	call	__syslog_chk
.LVL64:
.LBE645:
.LBE644:
.LBB646:
.LBB647:
	xorl	%eax, %eax
	movl	$.LC4, %edx
	movl	$1, %esi
	movl	$8, %edi
	call	__syslog_chk
.LVL65:
.LBE647:
.LBE646:
.LBB648:
.LBB649:
	xorl	%eax, %eax
	movl	$.LC4, %edx
	movl	$1, %esi
	movl	$8, %edi
	call	__syslog_chk
.LVL66:
.LBE649:
.LBE648:
.LBB650:
.LBB651:
	xorl	%eax, %eax
	movl	$.LC4, %edx
	movl	$1, %esi
	movl	$8, %edi
	call	__syslog_chk
.LVL67:
.LBE651:
.LBE650:
.LBB652:
.LBB653:
	xorl	%eax, %eax
	movl	$.LC4, %edx
	movl	$1, %esi
	movl	$8, %edi
	call	__syslog_chk
.LVL68:
.LBE653:
.LBE652:
.LBB654:
.LBB655:
	xorl	%eax, %eax
	movl	$.LC4, %edx
	movl	$1, %esi
	movl	$8, %edi
	call	__syslog_chk
.LVL69:
.LBE655:
.LBE654:
.LBB656:
.LBB657:
	xorl	%eax, %eax
	movl	$.LC4, %edx
	movl	$1, %esi
	movl	$8, %edi
	call	__syslog_chk
.LVL70:
.LBE657:
.LBE656:
.LBB658:
.LBB659:
	xorl	%eax, %eax
	movl	$.LC4, %edx
	movl	$1, %esi
	movl	$8, %edi
	call	__syslog_chk
.LVL71:
.LBE659:
.LBE658:
.LBB660:
.LBB661:
	xorl	%eax, %eax
	movl	$.LC4, %edx
	movl	$1, %esi
	movl	$8, %edi
	call	__syslog_chk
.LVL72:
.LBE661:
.LBE660:
.LBB662:
.LBB663:
	xorl	%eax, %eax
	movl	$.LC4, %edx
	movl	$1, %esi
	movl	$8, %edi
	call	__syslog_chk
.LVL73:
.LBE663:
.LBE662:
.LBB664:
.LBB665:
	movl	$.LC4, %edx
	movl	$1, %esi
	movl	$8, %edi
	xorl	%eax, %eax
	call	__syslog_chk
.LVL74:
.LBE665:
.LBE664:
.LBB666:
.LBB667:
	xorl	%eax, %eax
	movl	$.LC4, %edx
	movl	$1, %esi
	movl	$8, %edi
	call	__syslog_chk
.LVL75:
.LBE667:
.LBE666:
.LBB668:
.LBB669:
	xorl	%eax, %eax
	movl	$.LC4, %edx
	movl	$1, %esi
	movl	$8, %edi
	call	__syslog_chk
.LVL76:
.LBE669:
.LBE668:
.LBB670:
.LBB671:
	xorl	%eax, %eax
	movl	$.LC4, %edx
	movl	$1, %esi
	movl	$8, %edi
	call	__syslog_chk
.LVL77:
.LBE671:
.LBE670:
.LBB672:
.LBB673:
	xorl	%eax, %eax
	movl	$.LC4, %edx
	movl	$1, %esi
	movl	$8, %edi
	call	__syslog_chk
.LVL78:
.LBE673:
.LBE672:
.LBB674:
.LBB675:
	xorl	%eax, %eax
	movl	$.LC4, %edx
	movl	$1, %esi
	movl	$8, %edi
	call	__syslog_chk
.LVL79:
.LBE675:
.LBE674:
.LBB676:
.LBB677:
	xorl	%eax, %eax
	movl	$.LC4, %edx
	movl	$1, %esi
	movl	$8, %edi
	call	__syslog_chk
.LVL80:
.LBE677:
.LBE676:
.LBB678:
.LBB679:
	xorl	%eax, %eax
	movl	$.LC4, %edx
	movl	$1, %esi
	movl	$8, %edi
	call	__syslog_chk
.LVL81:
.LBE679:
.LBE678:
.LBB680:
.LBB681:
	xorl	%eax, %eax
	movl	$.LC4, %edx
	movl	$1, %esi
	movl	$8, %edi
	call	__syslog_chk
.LVL82:
.LBE681:
.LBE680:
.LBB682:
.LBB683:
	xorl	%eax, %eax
	movl	$.LC4, %edx
	movl	$1, %esi
	movl	$8, %edi
	call	__syslog_chk
.LVL83:
.LBE683:
.LBE682:
.LBB684:
.LBB685:
	xorl	%eax, %eax
	movl	$.LC4, %edx
	movl	$1, %esi
	movl	$8, %edi
	call	__syslog_chk
.LVL84:
.LBE685:
.LBE684:
.LBB686:
.LBB687:
	xorl	%eax, %eax
	movl	$.LC4, %edx
	movl	$1, %esi
	movl	$8, %edi
	call	__syslog_chk
.LVL85:
.LBE687:
.LBE686:
.LBB688:
.LBB689:
	xorl	%eax, %eax
	movl	$.LC4, %edx
	movl	$1, %esi
	movl	$8, %edi
	call	__syslog_chk
.LVL86:
.LBE689:
.LBE688:
.LBB690:
.LBB691:
	xorl	%eax, %eax
	movl	$.LC4, %edx
	movl	$1, %esi
	movl	$8, %edi
	call	__syslog_chk
.LVL87:
.LBE691:
.LBE690:
.LBB692:
.LBB693:
	xorl	%eax, %eax
	movl	$.LC4, %edx
	movl	$1, %esi
	movl	$8, %edi
	call	__syslog_chk
.LVL88:
.LBE693:
.LBE692:
.LBB694:
.LBB695:
	xorl	%eax, %eax
	movl	$.LC4, %edx
	movl	$1, %esi
	movl	$8, %edi
	call	__syslog_chk
.LVL89:
.LBE695:
.LBE694:
.LBB696:
.LBB697:
	xorl	%eax, %eax
	movl	$.LC4, %edx
	movl	$1, %esi
	movl	$8, %edi
	call	__syslog_chk
.LVL90:
.LBE697:
.LBE696:
.LBB698:
.LBB699:
	movl	$.LC4, %edx
	movl	$1, %esi
	movl	$8, %edi
	xorl	%eax, %eax
	call	__syslog_chk
.LVL91:
.LBE699:
.LBE698:
.LBB700:
.LBB701:
	xorl	%eax, %eax
	movl	$.LC4, %edx
	movl	$1, %esi
	movl	$8, %edi
	call	__syslog_chk
.LVL92:
.LBE701:
.LBE700:
.LBB702:
.LBB703:
	xorl	%eax, %eax
	movl	$.LC4, %edx
	movl	$1, %esi
	movl	$8, %edi
	call	__syslog_chk
.LVL93:
.LBE703:
.LBE702:
.LBB704:
.LBB705:
	xorl	%eax, %eax
	movl	$.LC4, %edx
	movl	$1, %esi
	movl	$8, %edi
	call	__syslog_chk
.LVL94:
.LBE705:
.LBE704:
.LBB706:
.LBB707:
	xorl	%eax, %eax
	movl	$.LC4, %edx
	movl	$1, %esi
	movl	$8, %edi
	call	__syslog_chk
.LVL95:
.LBE707:
.LBE706:
.LBB708:
.LBB709:
	xorl	%eax, %eax
	movl	$.LC4, %edx
	movl	$1, %esi
	movl	$8, %edi
	call	__syslog_chk
.LVL96:
.LBE709:
.LBE708:
.LBB710:
.LBB711:
	xorl	%eax, %eax
	movl	$.LC4, %edx
	movl	$1, %esi
	movl	$8, %edi
	call	__syslog_chk
.LVL97:
.LBE711:
.LBE710:
.LBB712:
.LBB713:
	xorl	%eax, %eax
	movl	$.LC4, %edx
	movl	$1, %esi
	movl	$8, %edi
	call	__syslog_chk
.LVL98:
.LBE713:
.LBE712:
.LBB714:
.LBB715:
	xorl	%eax, %eax
	movl	$.LC4, %edx
	movl	$1, %esi
	movl	$8, %edi
	call	__syslog_chk
.LVL99:
.LBE715:
.LBE714:
.LBB716:
.LBB717:
	xorl	%eax, %eax
	movl	$.LC4, %edx
	movl	$1, %esi
	movl	$8, %edi
	call	__syslog_chk
.LVL100:
.LBE717:
.LBE716:
.LBB718:
.LBB719:
	xorl	%eax, %eax
	movl	$.LC4, %edx
	movl	$1, %esi
	movl	$8, %edi
	call	__syslog_chk
.LVL101:
.LBE719:
.LBE718:
.LBB720:
.LBB721:
	xorl	%eax, %eax
	movl	$.LC4, %edx
	movl	$1, %esi
	movl	$8, %edi
	call	__syslog_chk
.LVL102:
.LBE721:
.LBE720:
.LBB722:
.LBB723:
	xorl	%eax, %eax
	movl	$.LC4, %edx
	movl	$1, %esi
	movl	$8, %edi
	call	__syslog_chk
.LVL103:
.LBE723:
.LBE722:
.LBB724:
.LBB725:
	xorl	%eax, %eax
	movl	$.LC4, %edx
	movl	$1, %esi
	movl	$8, %edi
	call	__syslog_chk
.LVL104:
.LBE725:
.LBE724:
.LBB726:
.LBB727:
	xorl	%eax, %eax
	movl	$.LC4, %edx
	movl	$1, %esi
	movl	$8, %edi
	call	__syslog_chk
.LVL105:
.LBE727:
.LBE726:
.LBB728:
.LBB729:
	xorl	%eax, %eax
	movl	$.LC4, %edx
	movl	$1, %esi
	movl	$8, %edi
	call	__syslog_chk
.LVL106:
.LBE729:
.LBE728:
.LBB730:
.LBB731:
	movl	$.LC4, %edx
	movl	$1, %esi
	movl	$8, %edi
	xorl	%eax, %eax
	call	__syslog_chk
.LVL107:
.LBE731:
.LBE730:
.LBB732:
.LBB733:
	xorl	%eax, %eax
	movl	$.LC4, %edx
	movl	$1, %esi
	movl	$8, %edi
	call	__syslog_chk
.LVL108:
.LBE733:
.LBE732:
.LBB734:
.LBB735:
	xorl	%eax, %eax
	movl	$.LC4, %edx
	movl	$1, %esi
	movl	$8, %edi
	call	__syslog_chk
.LVL109:
.LBE735:
.LBE734:
.LBB736:
.LBB737:
	xorl	%eax, %eax
	movl	$.LC4, %edx
	movl	$1, %esi
	movl	$8, %edi
	call	__syslog_chk
.LVL110:
.LBE737:
.LBE736:
.LBB738:
.LBB739:
	xorl	%eax, %eax
	movl	$.LC4, %edx
	movl	$1, %esi
	movl	$8, %edi
	call	__syslog_chk
.LVL111:
.LBE739:
.LBE738:
.LBB740:
.LBB741:
	xorl	%eax, %eax
	movl	$.LC4, %edx
	movl	$1, %esi
	movl	$8, %edi
	call	__syslog_chk
.LVL112:
.LBE741:
.LBE740:
.LBB742:
.LBB743:
	xorl	%eax, %eax
	movl	$.LC4, %edx
	movl	$1, %esi
	movl	$8, %edi
	call	__syslog_chk
.LVL113:
.LBE743:
.LBE742:
.LBB744:
.LBB745:
	xorl	%eax, %eax
	movl	$.LC4, %edx
	movl	$1, %esi
	movl	$8, %edi
	call	__syslog_chk
.LVL114:
.LBE745:
.LBE744:
.LBB746:
.LBB747:
	xorl	%eax, %eax
	movl	$.LC4, %edx
	movl	$1, %esi
	movl	$8, %edi
	call	__syslog_chk
.LVL115:
.LBE747:
.LBE746:
.LBB748:
.LBB749:
	xorl	%eax, %eax
	movl	$.LC4, %edx
	movl	$1, %esi
	movl	$8, %edi
	call	__syslog_chk
.LVL116:
.LBE749:
.LBE748:
.LBB750:
.LBB751:
	xorl	%eax, %eax
	movl	$.LC4, %edx
	movl	$1, %esi
	movl	$8, %edi
	call	__syslog_chk
.LVL117:
.LBE751:
.LBE750:
.LBB752:
.LBB753:
	xorl	%eax, %eax
	movl	$.LC4, %edx
	movl	$1, %esi
	movl	$8, %edi
	call	__syslog_chk
.LVL118:
.LBE753:
.LBE752:
.LBB754:
.LBB755:
	xorl	%eax, %eax
	movl	$.LC4, %edx
	movl	$1, %esi
	movl	$8, %edi
	call	__syslog_chk
.LVL119:
.LBE755:
.LBE754:
.LBB756:
.LBB757:
	xorl	%eax, %eax
	movl	$.LC4, %edx
	movl	$1, %esi
	movl	$8, %edi
	call	__syslog_chk
.LVL120:
.LBE757:
.LBE756:
.LBB758:
.LBB759:
	xorl	%eax, %eax
	movl	$.LC4, %edx
	movl	$1, %esi
	movl	$8, %edi
	call	__syslog_chk
.LVL121:
.LBE759:
.LBE758:
.LBB760:
.LBB761:
	xorl	%eax, %eax
	movl	$.LC4, %edx
	movl	$1, %esi
	movl	$8, %edi
	call	__syslog_chk
.LVL122:
.LBE761:
.LBE760:
.LBB762:
.LBB763:
	xorl	%eax, %eax
	movl	$.LC4, %edx
	movl	$1, %esi
	movl	$8, %edi
	call	__syslog_chk
.LVL123:
.LBE763:
.LBE762:
.LBB764:
.LBB765:
	movl	$.LC4, %edx
	movl	$1, %esi
	movl	$8, %edi
	xorl	%eax, %eax
	call	__syslog_chk
.LVL124:
.LBE765:
.LBE764:
.LBB766:
.LBB767:
	xorl	%eax, %eax
	movl	$.LC4, %edx
	movl	$1, %esi
	movl	$8, %edi
	call	__syslog_chk
.LVL125:
.LBE767:
.LBE766:
.LBB768:
.LBB769:
	xorl	%eax, %eax
	movl	$.LC4, %edx
	movl	$1, %esi
	movl	$8, %edi
	call	__syslog_chk
.LVL126:
.LBE769:
.LBE768:
.LBB770:
.LBB771:
	xorl	%eax, %eax
	movl	$.LC4, %edx
	movl	$1, %esi
	movl	$8, %edi
	call	__syslog_chk
.LVL127:
.LBE771:
.LBE770:
.LBB772:
.LBB773:
	xorl	%eax, %eax
	movl	$.LC4, %edx
	movl	$1, %esi
	movl	$8, %edi
	call	__syslog_chk
.LVL128:
.LBE773:
.LBE772:
.LBB774:
.LBB775:
	xorl	%eax, %eax
	movl	$.LC4, %edx
	movl	$1, %esi
	movl	$8, %edi
	call	__syslog_chk
.LVL129:
.LBE775:
.LBE774:
.LBB776:
.LBB777:
	xorl	%eax, %eax
	movl	$.LC4, %edx
	movl	$1, %esi
	movl	$8, %edi
	call	__syslog_chk
.LVL130:
.LBE777:
.LBE776:
.LBB778:
.LBB779:
	xorl	%eax, %eax
	movl	$.LC4, %edx
	movl	$1, %esi
	movl	$8, %edi
	call	__syslog_chk
.LVL131:
.LBE779:
.LBE778:
.LBB780:
.LBB781:
	xorl	%eax, %eax
	movl	$.LC4, %edx
	movl	$1, %esi
	movl	$8, %edi
	call	__syslog_chk
.LVL132:
.LBE781:
.LBE780:
.LBB782:
.LBB783:
	xorl	%eax, %eax
	movl	$.LC4, %edx
	movl	$1, %esi
	movl	$8, %edi
	call	__syslog_chk
.LVL133:
.LBE783:
.LBE782:
.LBB784:
.LBB785:
	xorl	%eax, %eax
	movl	$.LC4, %edx
	movl	$1, %esi
	movl	$8, %edi
	call	__syslog_chk
.LVL134:
.LBE785:
.LBE784:
.LBB786:
.LBB787:
	xorl	%eax, %eax
	movl	$.LC4, %edx
	movl	$1, %esi
	movl	$8, %edi
	call	__syslog_chk
.LVL135:
.LBE787:
.LBE786:
.LBB788:
.LBB789:
	xorl	%eax, %eax
	movl	$.LC4, %edx
	movl	$1, %esi
	movl	$8, %edi
	call	__syslog_chk
.LVL136:
.LBE789:
.LBE788:
.LBB790:
.LBB791:
	xorl	%eax, %eax
	movl	$.LC4, %edx
	movl	$1, %esi
	movl	$8, %edi
	call	__syslog_chk
.LVL137:
.LBE791:
.LBE790:
.LBB792:
.LBB793:
	xorl	%eax, %eax
	movl	$.LC4, %edx
	movl	$1, %esi
	movl	$8, %edi
	call	__syslog_chk
.LVL138:
.LBE793:
.LBE792:
.LBB794:
.LBB795:
	xorl	%eax, %eax
	movl	$.LC4, %edx
	movl	$1, %esi
	movl	$8, %edi
	call	__syslog_chk
.LVL139:
.LBE795:
.LBE794:
.LBB796:
.LBB797:
	movl	$.LC4, %edx
	movl	$1, %esi
	movl	$8, %edi
	xorl	%eax, %eax
	call	__syslog_chk
.LVL140:
.LBE797:
.LBE796:
.LBB798:
.LBB799:
	xorl	%eax, %eax
	movl	$.LC4, %edx
	movl	$1, %esi
	movl	$8, %edi
	call	__syslog_chk
.LVL141:
.LBE799:
.LBE798:
.LBB800:
.LBB801:
	xorl	%eax, %eax
	movl	$.LC4, %edx
	movl	$1, %esi
	movl	$8, %edi
	call	__syslog_chk
.LVL142:
.LBE801:
.LBE800:
.LBB802:
.LBB803:
	xorl	%eax, %eax
	movl	$.LC4, %edx
	movl	$1, %esi
	movl	$8, %edi
	call	__syslog_chk
.LVL143:
.LBE803:
.LBE802:
.LBB804:
.LBB805:
	xorl	%eax, %eax
	movl	$.LC4, %edx
	movl	$1, %esi
	movl	$8, %edi
	call	__syslog_chk
.LVL144:
.LBE805:
.LBE804:
.LBB806:
.LBB807:
	xorl	%eax, %eax
	movl	$.LC4, %edx
	movl	$1, %esi
	movl	$8, %edi
	call	__syslog_chk
.LVL145:
.LBE807:
.LBE806:
.LBB808:
.LBB809:
	xorl	%eax, %eax
	movl	$.LC4, %edx
	movl	$1, %esi
	movl	$8, %edi
	call	__syslog_chk
.LVL146:
.LBE809:
.LBE808:
.LBB810:
.LBB811:
	xorl	%eax, %eax
	movl	$.LC4, %edx
	movl	$1, %esi
	movl	$8, %edi
	call	__syslog_chk
.LVL147:
.LBE811:
.LBE810:
.LBB812:
.LBB813:
	xorl	%eax, %eax
	movl	$.LC4, %edx
	movl	$1, %esi
	movl	$8, %edi
	call	__syslog_chk
.LVL148:
.LBE813:
.LBE812:
.LBB814:
.LBB815:
	xorl	%eax, %eax
	movl	$.LC4, %edx
	movl	$1, %esi
	movl	$8, %edi
	call	__syslog_chk
.LVL149:
.LBE815:
.LBE814:
.LBB816:
.LBB817:
	xorl	%eax, %eax
	movl	$.LC4, %edx
	movl	$1, %esi
	movl	$8, %edi
	call	__syslog_chk
.LVL150:
.LBE817:
.LBE816:
.LBB818:
.LBB819:
	xorl	%eax, %eax
	movl	$.LC4, %edx
	movl	$1, %esi
	movl	$8, %edi
	call	__syslog_chk
.LVL151:
.LBE819:
.LBE818:
.LBB820:
.LBB821:
	xorl	%eax, %eax
	movl	$.LC4, %edx
	movl	$1, %esi
	movl	$8, %edi
	call	__syslog_chk
.LVL152:
.LBE821:
.LBE820:
.LBB822:
.LBB823:
	xorl	%eax, %eax
	movl	$.LC4, %edx
	movl	$1, %esi
	movl	$8, %edi
	call	__syslog_chk
.LVL153:
.LBE823:
.LBE822:
.LBB824:
.LBB825:
	xorl	%eax, %eax
	movl	$.LC4, %edx
	movl	$1, %esi
	movl	$8, %edi
	call	__syslog_chk
.LVL154:
.LBE825:
.LBE824:
.LBB826:
.LBB827:
	xorl	%eax, %eax
	movl	$.LC4, %edx
	movl	$1, %esi
	movl	$8, %edi
	call	__syslog_chk
.LVL155:
.LBE827:
.LBE826:
.LBB828:
.LBB829:
	xorl	%eax, %eax
	movl	$.LC4, %edx
	movl	$1, %esi
	movl	$8, %edi
	call	__syslog_chk
.LVL156:
.LBE829:
.LBE828:
.LBB830:
.LBB831:
	movl	$.LC4, %edx
	movl	$1, %esi
	movl	$8, %edi
	xorl	%eax, %eax
	call	__syslog_chk
.LVL157:
.LBE831:
.LBE830:
.LBB832:
.LBB833:
	xorl	%eax, %eax
	movl	$.LC4, %edx
	movl	$1, %esi
	movl	$8, %edi
	call	__syslog_chk
.LVL158:
.LBE833:
.LBE832:
.LBB834:
.LBB835:
	xorl	%eax, %eax
	movl	$.LC4, %edx
	movl	$1, %esi
	movl	$8, %edi
	call	__syslog_chk
.LVL159:
.LBE835:
.LBE834:
.LBB836:
.LBB837:
	xorl	%eax, %eax
	movl	$.LC4, %edx
	movl	$1, %esi
	movl	$8, %edi
	call	__syslog_chk
.LVL160:
.LBE837:
.LBE836:
.LBB838:
.LBB839:
	xorl	%eax, %eax
	movl	$.LC4, %edx
	movl	$1, %esi
	movl	$8, %edi
	call	__syslog_chk
.LVL161:
.LBE839:
.LBE838:
.LBB840:
.LBB841:
	xorl	%eax, %eax
	movl	$.LC4, %edx
	movl	$1, %esi
	movl	$8, %edi
	call	__syslog_chk
.LVL162:
.LBE841:
.LBE840:
.LBB842:
.LBB843:
	xorl	%eax, %eax
	movl	$.LC4, %edx
	movl	$1, %esi
	movl	$8, %edi
	call	__syslog_chk
.LVL163:
.LBE843:
.LBE842:
.LBB844:
.LBB845:
	xorl	%eax, %eax
	movl	$.LC4, %edx
	movl	$1, %esi
	movl	$8, %edi
	call	__syslog_chk
.LVL164:
.LBE845:
.LBE844:
.LBB846:
.LBB847:
	xorl	%eax, %eax
	movl	$.LC4, %edx
	movl	$1, %esi
	movl	$8, %edi
	call	__syslog_chk
.LVL165:
.LBE847:
.LBE846:
.LBB848:
.LBB849:
	xorl	%eax, %eax
	movl	$.LC4, %edx
	movl	$1, %esi
	movl	$8, %edi
	call	__syslog_chk
.LVL166:
.LBE849:
.LBE848:
.LBB850:
.LBB851:
	xorl	%eax, %eax
	movl	$.LC4, %edx
	movl	$1, %esi
	movl	$8, %edi
	call	__syslog_chk
.LVL167:
.LBE851:
.LBE850:
.LBB852:
.LBB853:
	xorl	%eax, %eax
	movl	$.LC4, %edx
	movl	$1, %esi
	movl	$8, %edi
	call	__syslog_chk
.LVL168:
.LBE853:
.LBE852:
.LBB854:
.LBB855:
	xorl	%eax, %eax
	movl	$.LC4, %edx
	movl	$1, %esi
	movl	$8, %edi
	call	__syslog_chk
.LVL169:
.LBE855:
.LBE854:
.LBB856:
.LBB857:
	xorl	%eax, %eax
	movl	$.LC4, %edx
	movl	$1, %esi
	movl	$8, %edi
	call	__syslog_chk
.LVL170:
.LBE857:
.LBE856:
.LBB858:
.LBB859:
	xorl	%eax, %eax
	movl	$.LC4, %edx
	movl	$1, %esi
	movl	$8, %edi
	call	__syslog_chk
.LVL171:
.LBE859:
.LBE858:
.LBB860:
.LBB861:
	xorl	%eax, %eax
	movl	$.LC4, %edx
	movl	$1, %esi
	movl	$8, %edi
	call	__syslog_chk
.LVL172:
.LBE861:
.LBE860:
.LBB862:
.LBB863:
	movl	$.LC4, %edx
	movl	$1, %esi
	movl	$8, %edi
	xorl	%eax, %eax
	call	__syslog_chk
.LVL173:
.LBE863:
.LBE862:
.LBB864:
.LBB865:
	xorl	%eax, %eax
	movl	$.LC4, %edx
	movl	$1, %esi
	movl	$8, %edi
	call	__syslog_chk
.LVL174:
.LBE865:
.LBE864:
.LBB866:
.LBB867:
	xorl	%eax, %eax
	movl	$.LC4, %edx
	movl	$1, %esi
	movl	$8, %edi
	call	__syslog_chk
.LVL175:
.LBE867:
.LBE866:
.LBB868:
.LBB869:
	xorl	%eax, %eax
	movl	$.LC4, %edx
	movl	$1, %esi
	movl	$8, %edi
	call	__syslog_chk
.LVL176:
.LBE869:
.LBE868:
.LBB870:
.LBB871:
	xorl	%eax, %eax
	movl	$.LC4, %edx
	movl	$1, %esi
	movl	$8, %edi
	call	__syslog_chk
.LVL177:
.LBE871:
.LBE870:
.LBB872:
.LBB873:
	xorl	%eax, %eax
	movl	$.LC4, %edx
	movl	$1, %esi
	movl	$8, %edi
	call	__syslog_chk
.LVL178:
.LBE873:
.LBE872:
.LBB874:
.LBB875:
	xorl	%eax, %eax
	movl	$.LC4, %edx
	movl	$1, %esi
	movl	$8, %edi
	call	__syslog_chk
.LVL179:
.LBE875:
.LBE874:
.LBB876:
.LBB877:
	xorl	%eax, %eax
	movl	$.LC4, %edx
	movl	$1, %esi
	movl	$8, %edi
	call	__syslog_chk
.LVL180:
.LBE877:
.LBE876:
.LBB878:
.LBB879:
	xorl	%eax, %eax
	movl	$.LC4, %edx
	movl	$1, %esi
	movl	$8, %edi
	call	__syslog_chk
.LVL181:
.LBE879:
.LBE878:
.LBB880:
.LBB881:
	xorl	%eax, %eax
	movl	$.LC4, %edx
	movl	$1, %esi
	movl	$8, %edi
	call	__syslog_chk
.LVL182:
.LBE881:
.LBE880:
.LBB882:
.LBB883:
	xorl	%eax, %eax
	movl	$.LC4, %edx
	movl	$1, %esi
	movl	$8, %edi
	call	__syslog_chk
.LVL183:
.LBE883:
.LBE882:
.LBB884:
.LBB885:
	xorl	%eax, %eax
	movl	$.LC4, %edx
	movl	$1, %esi
	movl	$8, %edi
	call	__syslog_chk
.LVL184:
.LBE885:
.LBE884:
.LBB886:
.LBB887:
	xorl	%eax, %eax
	movl	$.LC4, %edx
	movl	$1, %esi
	movl	$8, %edi
	call	__syslog_chk
.LVL185:
.LBE887:
.LBE886:
.LBB888:
.LBB889:
	xorl	%eax, %eax
	movl	$.LC4, %edx
	movl	$1, %esi
	movl	$8, %edi
	call	__syslog_chk
.LVL186:
.LBE889:
.LBE888:
.LBB890:
.LBB891:
	xorl	%eax, %eax
	movl	$.LC4, %edx
	movl	$1, %esi
	movl	$8, %edi
	call	__syslog_chk
.LVL187:
.LBE891:
.LBE890:
.LBB892:
.LBB893:
	xorl	%eax, %eax
	movl	$.LC4, %edx
	movl	$1, %esi
	movl	$8, %edi
	call	__syslog_chk
.LVL188:
.LBE893:
.LBE892:
.LBB894:
.LBB895:
	xorl	%eax, %eax
	movl	$.LC4, %edx
	movl	$1, %esi
	movl	$8, %edi
	call	__syslog_chk
.LVL189:
.LBE895:
.LBE894:
.LBB896:
.LBB897:
	movl	$.LC4, %edx
	movl	$1, %esi
	movl	$8, %edi
	xorl	%eax, %eax
	call	__syslog_chk
.LVL190:
.LBE897:
.LBE896:
.LBB898:
.LBB899:
	xorl	%eax, %eax
	movl	$.LC4, %edx
	movl	$1, %esi
	movl	$8, %edi
	call	__syslog_chk
.LVL191:
.LBE899:
.LBE898:
.LBB900:
.LBB901:
	xorl	%eax, %eax
	movl	$.LC4, %edx
	movl	$1, %esi
	movl	$8, %edi
	call	__syslog_chk
.LVL192:
.LBE901:
.LBE900:
.LBB902:
.LBB903:
	xorl	%eax, %eax
	movl	$.LC4, %edx
	movl	$1, %esi
	movl	$8, %edi
	call	__syslog_chk
.LVL193:
.LBE903:
.LBE902:
.LBB904:
.LBB905:
	xorl	%eax, %eax
	movl	$.LC4, %edx
	movl	$1, %esi
	movl	$8, %edi
	call	__syslog_chk
.LVL194:
.LBE905:
.LBE904:
.LBB906:
.LBB907:
	xorl	%eax, %eax
	movl	$.LC4, %edx
	movl	$1, %esi
	movl	$8, %edi
	call	__syslog_chk
.LVL195:
.LBE907:
.LBE906:
.LBB908:
.LBB909:
	xorl	%eax, %eax
	movl	$.LC4, %edx
	movl	$1, %esi
	movl	$8, %edi
	call	__syslog_chk
.LVL196:
.LBE909:
.LBE908:
.LBB910:
.LBB911:
	xorl	%eax, %eax
	movl	$.LC4, %edx
	movl	$1, %esi
	movl	$8, %edi
	call	__syslog_chk
.LVL197:
.LBE911:
.LBE910:
.LBB912:
.LBB913:
	xorl	%eax, %eax
	movl	$.LC4, %edx
	movl	$1, %esi
	movl	$8, %edi
	call	__syslog_chk
.LVL198:
.LBE913:
.LBE912:
.LBB914:
.LBB915:
	xorl	%eax, %eax
	movl	$.LC4, %edx
	movl	$1, %esi
	movl	$8, %edi
	call	__syslog_chk
.LVL199:
.LBE915:
.LBE914:
.LBB916:
.LBB917:
	xorl	%eax, %eax
	movl	$.LC4, %edx
	movl	$1, %esi
	movl	$8, %edi
	call	__syslog_chk
.LVL200:
.LBE917:
.LBE916:
.LBB918:
.LBB919:
	xorl	%eax, %eax
	movl	$.LC4, %edx
	movl	$1, %esi
	movl	$8, %edi
	call	__syslog_chk
.LVL201:
.LBE919:
.LBE918:
.LBB920:
.LBB921:
	xorl	%eax, %eax
	movl	$.LC4, %edx
	movl	$1, %esi
	movl	$8, %edi
	call	__syslog_chk
.LVL202:
.LBE921:
.LBE920:
.LBB922:
.LBB923:
	xorl	%eax, %eax
	movl	$.LC4, %edx
	movl	$1, %esi
	movl	$8, %edi
	call	__syslog_chk
.LVL203:
.LBE923:
.LBE922:
.LBB924:
.LBB925:
	xorl	%eax, %eax
	movl	$.LC4, %edx
	movl	$1, %esi
	movl	$8, %edi
	call	__syslog_chk
.LVL204:
.LBE925:
.LBE924:
.LBB926:
.LBB927:
	xorl	%eax, %eax
	movl	$.LC4, %edx
	movl	$1, %esi
	movl	$8, %edi
	call	__syslog_chk
.LVL205:
.LBE927:
.LBE926:
.LBB928:
.LBB929:
	movl	$.LC4, %edx
	movl	$1, %esi
	movl	$8, %edi
	xorl	%eax, %eax
	call	__syslog_chk
.LVL206:
.LBE929:
.LBE928:
.LBB930:
.LBB931:
	xorl	%eax, %eax
	movl	$.LC4, %edx
	movl	$1, %esi
	movl	$8, %edi
	call	__syslog_chk
.LVL207:
.LBE931:
.LBE930:
.LBB932:
.LBB933:
	xorl	%eax, %eax
	movl	$.LC4, %edx
	movl	$1, %esi
	movl	$8, %edi
	call	__syslog_chk
.LVL208:
.LBE933:
.LBE932:
.LBB934:
.LBB935:
	xorl	%eax, %eax
	movl	$.LC4, %edx
	movl	$1, %esi
	movl	$8, %edi
	call	__syslog_chk
.LVL209:
.LBE935:
.LBE934:
.LBB936:
.LBB937:
	xorl	%eax, %eax
	movl	$.LC4, %edx
	movl	$1, %esi
	movl	$8, %edi
	call	__syslog_chk
.LVL210:
.LBE937:
.LBE936:
.LBB938:
.LBB939:
	xorl	%eax, %eax
	movl	$.LC4, %edx
	movl	$1, %esi
	movl	$8, %edi
	call	__syslog_chk
.LVL211:
.LBE939:
.LBE938:
.LBB940:
.LBB941:
	xorl	%eax, %eax
	movl	$.LC4, %edx
	movl	$1, %esi
	movl	$8, %edi
	call	__syslog_chk
.LVL212:
.LBE941:
.LBE940:
.LBB942:
.LBB943:
	xorl	%eax, %eax
	movl	$.LC4, %edx
	movl	$1, %esi
	movl	$8, %edi
	call	__syslog_chk
.LVL213:
.LBE943:
.LBE942:
.LBB944:
.LBB945:
	xorl	%eax, %eax
	movl	$.LC4, %edx
	movl	$1, %esi
	movl	$8, %edi
	call	__syslog_chk
.LVL214:
.LBE945:
.LBE944:
.LBB946:
.LBB947:
	xorl	%eax, %eax
	movl	$.LC4, %edx
	movl	$1, %esi
	movl	$8, %edi
	call	__syslog_chk
.LVL215:
.LBE947:
.LBE946:
.LBB948:
.LBB949:
	xorl	%eax, %eax
	movl	$.LC4, %edx
	movl	$1, %esi
	movl	$8, %edi
	call	__syslog_chk
.LVL216:
.LBE949:
.LBE948:
.LBB950:
.LBB951:
	xorl	%eax, %eax
	movl	$.LC4, %edx
	movl	$1, %esi
	movl	$8, %edi
	call	__syslog_chk
.LVL217:
.LBE951:
.LBE950:
.LBB952:
.LBB953:
	xorl	%eax, %eax
	movl	$.LC4, %edx
	movl	$1, %esi
	movl	$8, %edi
	call	__syslog_chk
.LVL218:
.LBE953:
.LBE952:
.LBB954:
.LBB955:
	xorl	%eax, %eax
	movl	$.LC4, %edx
	movl	$1, %esi
	movl	$8, %edi
	call	__syslog_chk
.LVL219:
.LBE955:
.LBE954:
.LBB956:
.LBB957:
	xorl	%eax, %eax
	movl	$.LC4, %edx
	movl	$1, %esi
	movl	$8, %edi
	call	__syslog_chk
.LVL220:
.LBE957:
.LBE956:
.LBB958:
.LBB959:
	xorl	%eax, %eax
	movl	$.LC4, %edx
	movl	$1, %esi
	movl	$8, %edi
	call	__syslog_chk
.LVL221:
.LBE959:
.LBE958:
.LBB960:
.LBB961:
	xorl	%eax, %eax
	movl	$.LC4, %edx
	movl	$1, %esi
	movl	$8, %edi
	call	__syslog_chk
.LVL222:
.LBE961:
.LBE960:
.LBB962:
.LBB963:
	movl	$.LC4, %edx
	movl	$1, %esi
	movl	$8, %edi
	xorl	%eax, %eax
	call	__syslog_chk
.LVL223:
.LBE963:
.LBE962:
.LBB964:
.LBB965:
	xorl	%eax, %eax
	movl	$.LC4, %edx
	movl	$1, %esi
	movl	$8, %edi
	call	__syslog_chk
.LVL224:
.LBE965:
.LBE964:
.LBB966:
.LBB967:
	xorl	%eax, %eax
	movl	$.LC4, %edx
	movl	$1, %esi
	movl	$8, %edi
	call	__syslog_chk
.LVL225:
.LBE967:
.LBE966:
.LBB968:
.LBB969:
	xorl	%eax, %eax
	movl	$.LC4, %edx
	movl	$1, %esi
	movl	$8, %edi
	call	__syslog_chk
.LVL226:
.LBE969:
.LBE968:
.LBB970:
.LBB971:
	xorl	%eax, %eax
	movl	$.LC4, %edx
	movl	$1, %esi
	movl	$8, %edi
	call	__syslog_chk
.LVL227:
.LBE971:
.LBE970:
.LBB972:
.LBB973:
	xorl	%eax, %eax
	movl	$.LC4, %edx
	movl	$1, %esi
	movl	$8, %edi
	call	__syslog_chk
.LVL228:
.LBE973:
.LBE972:
.LBB974:
.LBB975:
	xorl	%eax, %eax
	movl	$.LC4, %edx
	movl	$1, %esi
	movl	$8, %edi
	call	__syslog_chk
.LVL229:
.LBE975:
.LBE974:
.LBB976:
.LBB977:
	xorl	%eax, %eax
	movl	$.LC4, %edx
	movl	$1, %esi
	movl	$8, %edi
	call	__syslog_chk
.LVL230:
.LBE977:
.LBE976:
.LBB978:
.LBB979:
	xorl	%eax, %eax
	movl	$.LC4, %edx
	movl	$1, %esi
	movl	$8, %edi
	call	__syslog_chk
.LVL231:
.LBE979:
.LBE978:
.LBB980:
.LBB981:
	xorl	%eax, %eax
	movl	$.LC4, %edx
	movl	$1, %esi
	movl	$8, %edi
	call	__syslog_chk
.LVL232:
.LBE981:
.LBE980:
.LBB982:
.LBB983:
	xorl	%eax, %eax
	movl	$.LC4, %edx
	movl	$1, %esi
	movl	$8, %edi
	call	__syslog_chk
.LVL233:
.LBE983:
.LBE982:
.LBB984:
.LBB985:
	xorl	%eax, %eax
	movl	$.LC4, %edx
	movl	$1, %esi
	movl	$8, %edi
	call	__syslog_chk
.LVL234:
.LBE985:
.LBE984:
.LBB986:
.LBB987:
	xorl	%eax, %eax
	movl	$.LC4, %edx
	movl	$1, %esi
	movl	$8, %edi
	call	__syslog_chk
.LVL235:
.LBE987:
.LBE986:
.LBB988:
.LBB989:
	xorl	%eax, %eax
	movl	$.LC4, %edx
	movl	$1, %esi
	movl	$8, %edi
	call	__syslog_chk
.LVL236:
.LBE989:
.LBE988:
.LBB990:
.LBB991:
	xorl	%eax, %eax
	movl	$.LC4, %edx
	movl	$1, %esi
	movl	$8, %edi
	call	__syslog_chk
.LVL237:
.LBE991:
.LBE990:
.LBB992:
.LBB993:
	xorl	%eax, %eax
	movl	$.LC4, %edx
	movl	$1, %esi
	movl	$8, %edi
	call	__syslog_chk
.LVL238:
.LBE993:
.LBE992:
.LBB994:
.LBB995:
	movl	$.LC4, %edx
	movl	$1, %esi
	movl	$8, %edi
	xorl	%eax, %eax
	call	__syslog_chk
.LVL239:
.LBE995:
.LBE994:
.LBB996:
.LBB997:
	xorl	%eax, %eax
	movl	$.LC4, %edx
	movl	$1, %esi
	movl	$8, %edi
	call	__syslog_chk
.LVL240:
.LBE997:
.LBE996:
.LBB998:
.LBB999:
	xorl	%eax, %eax
	movl	$.LC4, %edx
	movl	$1, %esi
	movl	$8, %edi
	call	__syslog_chk
.LVL241:
.LBE999:
.LBE998:
.LBB1000:
.LBB1001:
	xorl	%eax, %eax
	movl	$.LC4, %edx
	movl	$1, %esi
	movl	$8, %edi
	call	__syslog_chk
.LVL242:
.LBE1001:
.LBE1000:
.LBB1002:
.LBB1003:
	xorl	%eax, %eax
	movl	$.LC4, %edx
	movl	$1, %esi
	movl	$8, %edi
	call	__syslog_chk
.LVL243:
.LBE1003:
.LBE1002:
.LBB1004:
.LBB1005:
	xorl	%eax, %eax
	movl	$.LC4, %edx
	movl	$1, %esi
	movl	$8, %edi
	call	__syslog_chk
.LVL244:
.LBE1005:
.LBE1004:
.LBB1006:
.LBB1007:
	xorl	%eax, %eax
	movl	$.LC4, %edx
	movl	$1, %esi
	movl	$8, %edi
	call	__syslog_chk
.LVL245:
.LBE1007:
.LBE1006:
.LBB1008:
.LBB1009:
	xorl	%eax, %eax
	movl	$.LC4, %edx
	movl	$1, %esi
	movl	$8, %edi
	call	__syslog_chk
.LVL246:
.LBE1009:
.LBE1008:
.LBB1010:
.LBB1011:
	xorl	%eax, %eax
	movl	$.LC4, %edx
	movl	$1, %esi
	movl	$8, %edi
	call	__syslog_chk
.LVL247:
.LBE1011:
.LBE1010:
.LBB1012:
.LBB1013:
	xorl	%eax, %eax
	movl	$.LC4, %edx
	movl	$1, %esi
	movl	$8, %edi
	call	__syslog_chk
.LVL248:
.LBE1013:
.LBE1012:
.LBB1014:
.LBB1015:
	xorl	%eax, %eax
	movl	$.LC4, %edx
	movl	$1, %esi
	movl	$8, %edi
	call	__syslog_chk
.LVL249:
.LBE1015:
.LBE1014:
.LBB1016:
.LBB1017:
	xorl	%eax, %eax
	movl	$.LC4, %edx
	movl	$1, %esi
	movl	$8, %edi
	call	__syslog_chk
.LVL250:
.LBE1017:
.LBE1016:
.LBB1018:
.LBB1019:
	xorl	%eax, %eax
	movl	$.LC4, %edx
	movl	$1, %esi
	movl	$8, %edi
	call	__syslog_chk
.LVL251:
.LBE1019:
.LBE1018:
.LBB1020:
.LBB1021:
	xorl	%eax, %eax
	movl	$.LC4, %edx
	movl	$1, %esi
	movl	$8, %edi
	call	__syslog_chk
.LVL252:
.LBE1021:
.LBE1020:
.LBB1022:
.LBB1023:
	xorl	%eax, %eax
	movl	$.LC4, %edx
	movl	$1, %esi
	movl	$8, %edi
	call	__syslog_chk
.LVL253:
.LBE1023:
.LBE1022:
.LBB1024:
.LBB1025:
	xorl	%eax, %eax
	movl	$.LC4, %edx
	movl	$1, %esi
	movl	$8, %edi
	call	__syslog_chk
.LVL254:
.LBE1025:
.LBE1024:
.LBB1026:
.LBB1027:
	xorl	%eax, %eax
	movl	$.LC4, %edx
	movl	$1, %esi
	movl	$8, %edi
	call	__syslog_chk
.LVL255:
.LBE1027:
.LBE1026:
.LBB1028:
.LBB1029:
	movl	$.LC4, %edx
	movl	$1, %esi
	movl	$8, %edi
	xorl	%eax, %eax
	call	__syslog_chk
.LVL256:
.LBE1029:
.LBE1028:
.LBB1030:
.LBB1031:
	xorl	%eax, %eax
	movl	$.LC4, %edx
	movl	$1, %esi
	movl	$8, %edi
	call	__syslog_chk
.LVL257:
.LBE1031:
.LBE1030:
.LBB1032:
.LBB1033:
	xorl	%eax, %eax
	movl	$.LC4, %edx
	movl	$1, %esi
	movl	$8, %edi
	call	__syslog_chk
.LVL258:
.LBE1033:
.LBE1032:
.LBB1034:
.LBB1035:
	xorl	%eax, %eax
	movl	$.LC4, %edx
	movl	$1, %esi
	movl	$8, %edi
	call	__syslog_chk
.LVL259:
.LBE1035:
.LBE1034:
.LBB1036:
.LBB1037:
	xorl	%eax, %eax
	movl	$.LC4, %edx
	movl	$1, %esi
	movl	$8, %edi
	call	__syslog_chk
.LVL260:
.LBE1037:
.LBE1036:
.LBB1038:
.LBB1039:
	xorl	%eax, %eax
	movl	$.LC4, %edx
	movl	$1, %esi
	movl	$8, %edi
	call	__syslog_chk
.LVL261:
.LBE1039:
.LBE1038:
.LBB1040:
.LBB1041:
	xorl	%eax, %eax
	movl	$.LC4, %edx
	movl	$1, %esi
	movl	$8, %edi
	call	__syslog_chk
.LVL262:
.LBE1041:
.LBE1040:
.LBB1042:
.LBB1043:
	xorl	%eax, %eax
	movl	$.LC4, %edx
	movl	$1, %esi
	movl	$8, %edi
	call	__syslog_chk
.LVL263:
.LBE1043:
.LBE1042:
.LBB1044:
.LBB1045:
	xorl	%eax, %eax
	movl	$.LC4, %edx
	movl	$1, %esi
	movl	$8, %edi
	call	__syslog_chk
.LVL264:
.LBE1045:
.LBE1044:
	.loc 1 126 0
	subl	$1, %ebx
	jne	.L6
	.loc 1 129 0
	call	now
.LVL265:
	.loc 1 130 0
	subsd	8(%rsp), %xmm0
.LVL266:
	.loc 1 131 0
	movsd	.LC8(%rip), %xmm1
	.loc 1 130 0
	mulsd	.LC6(%rip), %xmm0
	mulsd	.LC7(%rip), %xmm0
.LVL267:
	.loc 1 131 0
	ucomisd	%xmm0, %xmm1
	ja	.L18
.LVL268:
	.loc 1 134 0
	divsd	%xmm1, %xmm0
.LVL269:
.LBB1046:
.LBB1047:
	.loc 2 104 0
	movl	$.LC10, %esi
	movl	$1, %edi
	movl	$1, %eax
	call	__printf_chk
.LVL270:
.L9:
.LBE1047:
.LBE1046:
	.loc 1 167 0
	movq	%rbp, %rdi
	call	fclose
.LVL271:
	.loc 1 168 0
	movl	$.LC2, %edi
	xorl	%eax, %eax
	call	unlink
.LVL272:
	.loc 1 169 0
	addq	$40, %rsp
	.cfi_remember_state
	.cfi_def_cfa_offset 24
	popq	%rbx
	.cfi_def_cfa_offset 16
	popq	%rbp
	.cfi_def_cfa_offset 8
.LVL273:
	ret
.LVL274:
.L18:
	.cfi_restore_state
.LBB1048:
.LBB1049:
	.loc 2 104 0
	movl	$.LC9, %esi
	movl	$1, %edi
	movl	$1, %eax
	call	__printf_chk
.LVL275:
	jmp	.L9
.LVL276:
.L17:
.L4:
.LBE1049:
.LBE1048:
	.loc 1 119 0
#APP
# 119 "tmp.c" 1
	scode:
# 0 "" 2
.LVL277:
#NO_APP
.LBB1050:
.LBB1051:
	.loc 3 31 0
	movl	$.LC4, %edx
	movl	$1, %esi
	movl	$8, %edi
	xorl	%eax, %eax
	call	__syslog_chk
.LVL278:
.LBE1051:
.LBE1050:
	.loc 1 121 0
#APP
# 121 "tmp.c" 1
	ecode:
# 0 "" 2
#NO_APP
	jmp	.L3
	.cfi_endproc
.LFE69:
	.size	main, .-main
	.comm	dest,80,32
	.globl	str
	.data
	.type	str, @object
	.size	str, 11
str:
	.string	"helloworld"
	.comm	za,4194304,32
	.globl	a
	.align 32
	.type	a, @object
	.size	a, 40
a:
	.long	0
	.long	1
	.long	2
	.long	3
	.long	4
	.long	5
	.long	6
	.long	7
	.long	8
	.long	9
	.globl	gfs
	.align 4
	.type	gfs, @object
	.size	gfs, 4
gfs:
	.long	1078523331
	.globl	gf
	.align 4
	.type	gf, @object
	.size	gf, 4
gf:
	.long	1078523331
	.globl	gi
	.align 4
	.type	gi, @object
	.size	gi, 4
gi:
	.long	10
	.globl	false
	.bss
	.align 4
	.type	false, @object
	.size	false, 4
false:
	.zero	4
	.local	_dl_target
	.comm	_dl_target,4,4
	.local	_di_target
	.comm	_di_target,4,4
	.section	.rodata.cst8,"aM",@progbits,8
	.align 8
.LC6:
	.long	0
	.long	1104006501
	.align 8
.LC7:
	.long	0
	.long	1053818880
	.align 8
.LC8:
	.long	0
	.long	1083129856
	.text
.Letext0:
	.file 4 "/usr/lib/gcc/x86_64-linux-gnu/4.8/include/stddef.h"
	.file 5 "/usr/include/x86_64-linux-gnu/bits/types.h"
	.file 6 "/usr/include/stdio.h"
	.file 7 "/usr/include/libio.h"
	.file 8 "../src/L_buffer.h"
	.file 9 "../src/DI.h"
	.file 10 "../src/DL.h"
	.file 11 "<built-in>"
	.file 12 "../src/now.h"
	.section	.note.GNU-stack,"",@progbits
